target datalayout = "e-m:e-p270:32:32-p271:32:32-p272:64:64-i64:64-i128:128-f80:128-n8:16:32:64-S128"
target triple = "x86_64-pc-linux-gnu"

%struct.ResultRelInfo = type { i32, i32, ptr, i32, ptr, ptr, i16, ptr, i8, ptr, ptr, ptr, i8, i8, ptr, ptr, ptr, ptr, ptr, ptr, ptr, ptr, ptr, ptr, i8, i32, i32, i32, ptr, ptr, ptr, ptr, ptr, ptr, ptr, i32, i32, ptr, ptr, ptr, ptr, [3 x ptr], ptr, ptr, ptr, i8, ptr, i8, ptr, ptr, ptr, ptr }
%struct.RelationData = type { %struct.RelFileLocator, ptr, i32, i32, i8, i8, i8, i8, i8, i32, i32, i32, i32, ptr, ptr, i32, %struct.LockInfoData, ptr, ptr, ptr, ptr, ptr, i8, ptr, ptr, ptr, ptr, ptr, ptr, i32, ptr, i8, ptr, ptr, i32, i8, i32, ptr, i8, ptr, ptr, ptr, ptr, ptr, ptr, ptr, i32, ptr, ptr, ptr, ptr, ptr, ptr, ptr, ptr, ptr, ptr, ptr, ptr, ptr, ptr, ptr, ptr, ptr, ptr, ptr, i32, i8, ptr }
%struct.RelFileLocator = type { i32, i32, i32 }
%struct.LockInfoData = type { %struct.LockRelId }
%struct.LockRelId = type { i32, i32 }
%struct.FormData_pg_class = type { i32, %struct.nameData, i32, i32, i32, i32, i32, i32, i32, i32, float, i32, i32, i8, i8, i8, i8, i16, i16, i8, i8, i8, i8, i8, i8, i8, i8, i32, i32, i32 }
%struct.nameData = type { [64 x i8] }
%struct.TriggerDesc = type { ptr, i32, i8, i8, i8, i8, i8, i8, i8, i8, i8, i8, i8, i8, i8, i8, i8, i8, i8, i8, i8, i8, i8 }

; Function Attrs: nounwind uwtable
define dso_local void @InitResultRelInfo(ptr noundef %0, ptr noundef %1, i32 noundef %2, ptr noundef %3, i32 noundef %4) #0 {
  %6 = alloca ptr, align 8
  %7 = alloca ptr, align 8
  %8 = alloca i32, align 4
  %9 = alloca ptr, align 8
  %10 = alloca i32, align 4
  %11 = alloca ptr, align 8
  %12 = alloca i32, align 4
  %13 = alloca i64, align 8
  %14 = alloca ptr, align 8
  %15 = alloca ptr, align 8
  %16 = alloca i32, align 4
  store ptr %0, ptr %6, align 8
  store ptr %1, ptr %7, align 8
  store i32 %2, ptr %8, align 4
  store ptr %3, ptr %9, align 8
  store i32 %4, ptr %10, align 4
  br label %17

17:                                               ; preds = %5
  call void @llvm.lifetime.start.p0(i64 8, ptr %11) #9
  %18 = load ptr, ptr %6, align 8
  store ptr %18, ptr %11, align 8
  call void @llvm.lifetime.start.p0(i64 4, ptr %12) #9
  store i32 0, ptr %12, align 4
  call void @llvm.lifetime.start.p0(i64 8, ptr %13) #9
  store i64 392, ptr %13, align 8
  %19 = load ptr, ptr %11, align 8
  %20 = ptrtoint ptr %19 to i64
  %21 = and i64 %20, 7
  %22 = icmp eq i64 %21, 0
  br i1 %22, label %23, label %46

23:                                               ; preds = %17
  %24 = load i64, ptr %13, align 8
  %25 = and i64 %24, 7
  %26 = icmp eq i64 %25, 0
  br i1 %26, label %27, label %46

27:                                               ; preds = %23
  %28 = load i32, ptr %12, align 4
  %29 = icmp eq i32 %28, 0
  br i1 %29, label %30, label %46

30:                                               ; preds = %27
  %31 = load i64, ptr %13, align 8
  %32 = icmp ule i64 %31, 1024
  br i1 %32, label %33, label %46

33:                                               ; preds = %30
  call void @llvm.lifetime.start.p0(i64 8, ptr %14) #9
  %34 = load ptr, ptr %11, align 8
  store ptr %34, ptr %14, align 8
  call void @llvm.lifetime.start.p0(i64 8, ptr %15) #9
  %35 = load ptr, ptr %14, align 8
  %36 = load i64, ptr %13, align 8
  %37 = getelementptr inbounds nuw i8, ptr %35, i64 %36
  store ptr %37, ptr %15, align 8
  br label %38

38:                                               ; preds = %42, %33
  %39 = load ptr, ptr %14, align 8
  %40 = load ptr, ptr %15, align 8
  %41 = icmp ult ptr %39, %40
  br i1 %41, label %42, label %45

42:                                               ; preds = %38
  %43 = load ptr, ptr %14, align 8
  %44 = getelementptr inbounds nuw i64, ptr %43, i32 1
  store ptr %44, ptr %14, align 8
  store i64 0, ptr %43, align 8
  br label %38, !llvm.loop !15

45:                                               ; preds = %38
  call void @llvm.lifetime.end.p0(i64 8, ptr %15) #9
  call void @llvm.lifetime.end.p0(i64 8, ptr %14) #9
  br label %51

46:                                               ; preds = %30, %27, %23, %17
  %47 = load ptr, ptr %11, align 8
  %48 = load i32, ptr %12, align 4
  %49 = trunc i32 %48 to i8
  %50 = load i64, ptr %13, align 8
  call void @llvm.memset.p0.i64(ptr align 1 %47, i8 %49, i64 %50, i1 false)
  br label %51

51:                                               ; preds = %46, %45
  call void @llvm.lifetime.end.p0(i64 8, ptr %13) #9
  call void @llvm.lifetime.end.p0(i64 4, ptr %12) #9
  call void @llvm.lifetime.end.p0(i64 8, ptr %11) #9
  br label %52

52:                                               ; preds = %51
  %53 = load ptr, ptr %6, align 8
  %54 = getelementptr inbounds nuw %struct.ResultRelInfo, ptr %53, i32 0, i32 0
  store i32 387, ptr %54, align 8
  %55 = load i32, ptr %8, align 4
  %56 = load ptr, ptr %6, align 8
  %57 = getelementptr inbounds nuw %struct.ResultRelInfo, ptr %56, i32 0, i32 1
  store i32 %55, ptr %57, align 4
  %58 = load ptr, ptr %7, align 8
  %59 = load ptr, ptr %6, align 8
  %60 = getelementptr inbounds nuw %struct.ResultRelInfo, ptr %59, i32 0, i32 2
  store ptr %58, ptr %60, align 8
  %61 = load ptr, ptr %6, align 8
  %62 = getelementptr inbounds nuw %struct.ResultRelInfo, ptr %61, i32 0, i32 3
  store i32 0, ptr %62, align 8
  %63 = load ptr, ptr %6, align 8
  %64 = getelementptr inbounds nuw %struct.ResultRelInfo, ptr %63, i32 0, i32 4
  store ptr null, ptr %64, align 8
  %65 = load ptr, ptr %6, align 8
  %66 = getelementptr inbounds nuw %struct.ResultRelInfo, ptr %65, i32 0, i32 5
  store ptr null, ptr %66, align 8
  %67 = load ptr, ptr %7, align 8
  %68 = call zeroext i1 @IsInplaceUpdateRelation(ptr noundef %67)
  %69 = load ptr, ptr %6, align 8
  %70 = getelementptr inbounds nuw %struct.ResultRelInfo, ptr %69, i32 0, i32 13
  %71 = zext i1 %68 to i8
  store i8 %71, ptr %70, align 1
  %72 = load ptr, ptr %7, align 8
  %73 = getelementptr inbounds nuw %struct.RelationData, ptr %72, i32 0, i32 19
  %74 = load ptr, ptr %73, align 8
  %75 = call ptr @CopyTriggerDesc(ptr noundef %74)
  %76 = load ptr, ptr %6, align 8
  %77 = getelementptr inbounds nuw %struct.ResultRelInfo, ptr %76, i32 0, i32 14
  store ptr %75, ptr %77, align 8
  %78 = load ptr, ptr %6, align 8
  %79 = getelementptr inbounds nuw %struct.ResultRelInfo, ptr %78, i32 0, i32 14
  %80 = load ptr, ptr %79, align 8
  %81 = icmp ne ptr %80, null
  br i1 %81, label %82, label %109

82:                                               ; preds = %52
  call void @llvm.lifetime.start.p0(i64 4, ptr %16) #9
  %83 = load ptr, ptr %6, align 8
  %84 = getelementptr inbounds nuw %struct.ResultRelInfo, ptr %83, i32 0, i32 14
  %85 = load ptr, ptr %84, align 8
  %86 = getelementptr inbounds nuw %struct.TriggerDesc, ptr %85, i32 0, i32 1
  %87 = load i32, ptr %86, align 8
  store i32 %87, ptr %16, align 4
  %88 = load i32, ptr %16, align 4
  %89 = sext i32 %88 to i64
  %90 = mul i64 %89, 48
  %91 = call ptr @palloc0(i64 noundef %90)
  %92 = load ptr, ptr %6, align 8
  %93 = getelementptr inbounds nuw %struct.ResultRelInfo, ptr %92, i32 0, i32 15
  store ptr %91, ptr %93, align 8
  %94 = load i32, ptr %16, align 4
  %95 = sext i32 %94 to i64
  %96 = mul i64 %95, 8
  %97 = call ptr @palloc0(i64 noundef %96)
  %98 = load ptr, ptr %6, align 8
  %99 = getelementptr inbounds nuw %struct.ResultRelInfo, ptr %98, i32 0, i32 16
  store ptr %97, ptr %99, align 8
  %100 = load i32, ptr %10, align 4
  %101 = icmp ne i32 %100, 0
  br i1 %101, label %102, label %108

102:                                              ; preds = %82
  %103 = load i32, ptr %16, align 4
  %104 = load i32, ptr %10, align 4
  %105 = call ptr @InstrAlloc(i32 noundef %103, i32 noundef %104, i1 noundef zeroext false)
  %106 = load ptr, ptr %6, align 8
  %107 = getelementptr inbounds nuw %struct.ResultRelInfo, ptr %106, i32 0, i32 17
  store ptr %105, ptr %107, align 8
  br label %108

108:                                              ; preds = %102, %82
  call void @llvm.lifetime.end.p0(i64 4, ptr %16) #9
  br label %116

109:                                              ; preds = %52
  %110 = load ptr, ptr %6, align 8
  %111 = getelementptr inbounds nuw %struct.ResultRelInfo, ptr %110, i32 0, i32 15
  store ptr null, ptr %111, align 8
  %112 = load ptr, ptr %6, align 8
  %113 = getelementptr inbounds nuw %struct.ResultRelInfo, ptr %112, i32 0, i32 16
  store ptr null, ptr %113, align 8
  %114 = load ptr, ptr %6, align 8
  %115 = getelementptr inbounds nuw %struct.ResultRelInfo, ptr %114, i32 0, i32 17
  store ptr null, ptr %115, align 8
  br label %116

116:                                              ; preds = %109, %108
  %117 = load ptr, ptr %7, align 8
  %118 = getelementptr inbounds nuw %struct.RelationData, ptr %117, i32 0, i32 13
  %119 = load ptr, ptr %118, align 8
  %120 = getelementptr inbounds nuw %struct.FormData_pg_class, ptr %119, i32 0, i32 16
  %121 = load i8, ptr %120, align 1
  %122 = sext i8 %121 to i32
  %123 = icmp eq i32 %122, 102
  br i1 %123, label %124, label %129

124:                                              ; preds = %116
  %125 = load ptr, ptr %7, align 8
  %126 = call ptr @GetFdwRoutineForRelation(ptr noundef %125, i1 noundef zeroext true)
  %127 = load ptr, ptr %6, align 8
  %128 = getelementptr inbounds nuw %struct.ResultRelInfo, ptr %127, i32 0, i32 22
  store ptr %126, ptr %128, align 8
  br label %132

129:                                              ; preds = %116
  %130 = load ptr, ptr %6, align 8
  %131 = getelementptr inbounds nuw %struct.ResultRelInfo, ptr %130, i32 0, i32 22
  store ptr null, ptr %131, align 8
  br label %132

132:                                              ; preds = %129, %124
  %133 = load ptr, ptr %6, align 8
  %134 = getelementptr inbounds nuw %struct.ResultRelInfo, ptr %133, i32 0, i32 6
  store i16 0, ptr %134, align 8
  %135 = load ptr, ptr %6, align 8
  %136 = getelementptr inbounds nuw %struct.ResultRelInfo, ptr %135, i32 0, i32 7
  store ptr null, ptr %136, align 8
  %137 = load ptr, ptr %6, align 8
  %138 = getelementptr inbounds nuw %struct.ResultRelInfo, ptr %137, i32 0, i32 9
  store ptr null, ptr %138, align 8
  %139 = load ptr, ptr %6, align 8
  %140 = getelementptr inbounds nuw %struct.ResultRelInfo, ptr %139, i32 0, i32 10
  store ptr null, ptr %140, align 8
  %141 = load ptr, ptr %6, align 8
  %142 = getelementptr inbounds nuw %struct.ResultRelInfo, ptr %141, i32 0, i32 11
  store ptr null, ptr %142, align 8
  %143 = load ptr, ptr %6, align 8
  %144 = getelementptr inbounds nuw %struct.ResultRelInfo, ptr %143, i32 0, i32 12
  store i8 0, ptr %144, align 8
  %145 = load ptr, ptr %6, align 8
  %146 = getelementptr inbounds nuw %struct.ResultRelInfo, ptr %145, i32 0, i32 23
  store ptr null, ptr %146, align 8
  %147 = load ptr, ptr %6, align 8
  %148 = getelementptr inbounds nuw %struct.ResultRelInfo, ptr %147, i32 0, i32 24
  store i8 0, ptr %148, align 8
  %149 = load ptr, ptr %6, align 8
  %150 = getelementptr inbounds nuw %struct.ResultRelInfo, ptr %149, i32 0, i32 32
  store ptr null, ptr %150, align 8
  %151 = load ptr, ptr %6, align 8
  %152 = getelementptr inbounds nuw %struct.ResultRelInfo, ptr %151, i32 0, i32 33
  store ptr null, ptr %152, align 8
  %153 = load ptr, ptr %6, align 8
  %154 = getelementptr inbounds nuw %struct.ResultRelInfo, ptr %153, i32 0, i32 34
  store ptr null, ptr %154, align 8
  %155 = load ptr, ptr %6, align 8
  %156 = getelementptr inbounds nuw %struct.ResultRelInfo, ptr %155, i32 0, i32 38
  store ptr null, ptr %156, align 8
  %157 = load ptr, ptr %6, align 8
  %158 = getelementptr inbounds nuw %struct.ResultRelInfo, ptr %157, i32 0, i32 39
  store ptr null, ptr %158, align 8
  %159 = load ptr, ptr %6, align 8
  %160 = getelementptr inbounds nuw %struct.ResultRelInfo, ptr %159, i32 0, i32 40
  store ptr null, ptr %160, align 8
  %161 = load ptr, ptr %6, align 8
  %162 = getelementptr inbounds nuw %struct.ResultRelInfo, ptr %161, i32 0, i32 18
  store ptr null, ptr %162, align 8
  %163 = load ptr, ptr %6, align 8
  %164 = getelementptr inbounds nuw %struct.ResultRelInfo, ptr %163, i32 0, i32 19
  store ptr null, ptr %164, align 8
  %165 = load ptr, ptr %6, align 8
  %166 = getelementptr inbounds nuw %struct.ResultRelInfo, ptr %165, i32 0, i32 20
  store ptr null, ptr %166, align 8
  %167 = load ptr, ptr %6, align 8
  %168 = getelementptr inbounds nuw %struct.ResultRelInfo, ptr %167, i32 0, i32 21
  store ptr null, ptr %168, align 8
  %169 = load ptr, ptr %6, align 8
  %170 = getelementptr inbounds nuw %struct.ResultRelInfo, ptr %169, i32 0, i32 41
  %171 = getelementptr inbounds [3 x ptr], ptr %170, i64 0, i64 0
  store ptr null, ptr %171, align 8
  %172 = load ptr, ptr %6, align 8
  %173 = getelementptr inbounds nuw %struct.ResultRelInfo, ptr %172, i32 0, i32 41
  %174 = getelementptr inbounds [3 x ptr], ptr %173, i64 0, i64 1
  store ptr null, ptr %174, align 8
  %175 = load ptr, ptr %6, align 8
  %176 = getelementptr inbounds nuw %struct.ResultRelInfo, ptr %175, i32 0, i32 41
  %177 = getelementptr inbounds [3 x ptr], ptr %176, i64 0, i64 2
  store ptr null, ptr %177, align 8
  %178 = load ptr, ptr %6, align 8
  %179 = getelementptr inbounds nuw %struct.ResultRelInfo, ptr %178, i32 0, i32 42
  store ptr null, ptr %179, align 8
  %180 = load ptr, ptr %9, align 8
  %181 = load ptr, ptr %6, align 8
  %182 = getelementptr inbounds nuw %struct.ResultRelInfo, ptr %181, i32 0, i32 48
  store ptr %180, ptr %182, align 8
  %183 = load ptr, ptr %6, align 8
  %184 = getelementptr inbounds nuw %struct.ResultRelInfo, ptr %183, i32 0, i32 46
  store ptr null, ptr %184, align 8
  %185 = load ptr, ptr %6, align 8
  %186 = getelementptr inbounds nuw %struct.ResultRelInfo, ptr %185, i32 0, i32 47
  store i8 0, ptr %186, align 8
  %187 = load ptr, ptr %6, align 8
  %188 = getelementptr inbounds nuw %struct.ResultRelInfo, ptr %187, i32 0, i32 49
  store ptr null, ptr %188, align 8
  %189 = load ptr, ptr %6, align 8
  %190 = getelementptr inbounds nuw %struct.ResultRelInfo, ptr %189, i32 0, i32 44
  store ptr null, ptr %190, align 8
  %191 = load ptr, ptr %6, align 8
  %192 = getelementptr inbounds nuw %struct.ResultRelInfo, ptr %191, i32 0, i32 45
  store i8 0, ptr %192, align 8
  %193 = load ptr, ptr %6, align 8
  %194 = getelementptr inbounds nuw %struct.ResultRelInfo, ptr %193, i32 0, i32 50
  store ptr null, ptr %194, align 8
  ret void
}