; Function Attrs: nounwind uwtable
define dso_local void @InitResultRelInfo(ptr noundef %0, ptr noundef %1, i32 noundef %2, ptr noundef %3, i32 noundef %4) local_unnamed_addr #0 {
  %6 = ptrtoint ptr %0 to i64
  %7 = and i64 %6, 7
  %8 = icmp eq i64 %7, 0
  br i1 %8, label %.preheader.preheader, label %10

.preheader.preheader:                             ; preds = %5
  %9 = getelementptr inbounds nuw i8, ptr %0, i64 16
  tail call void @llvm.memset.p0.i64(ptr noundef nonnull align 8 dereferenceable(392) %9, i8 0, i64 376, i1 false)
  br label %.loopexit

10:                                               ; preds = %5
  %11 = getelementptr inbounds nuw i8, ptr %0, i64 20
  tail call void @llvm.memset.p0.i64(ptr noundef nonnull align 1 dereferenceable(392) %11, i8 0, i64 372, i1 false)
  br label %.loopexit

.loopexit:                                        ; preds = %.preheader.preheader, %10
  store i32 387, ptr %0, align 8
  %12 = getelementptr inbounds nuw i8, ptr %0, i64 4
  store i32 %2, ptr %12, align 4
  %13 = getelementptr inbounds nuw i8, ptr %0, i64 8
  store ptr %1, ptr %13, align 8
  %14 = getelementptr inbounds nuw i8, ptr %0, i64 16
  store i32 0, ptr %14, align 8
  %15 = getelementptr inbounds nuw i8, ptr %0, i64 24
  tail call void @llvm.memset.p0.i64(ptr noundef nonnull align 8 dereferenceable(16) %15, i8 0, i64 16, i1 false)
  %16 = tail call zeroext i1 @IsInplaceUpdateRelation(ptr noundef %1) #9
  %17 = getelementptr inbounds nuw i8, ptr %0, i64 89
  %18 = zext i1 %16 to i8
  store i8 %18, ptr %17, align 1
  %19 = getelementptr inbounds nuw i8, ptr %1, i64 104
  %20 = load ptr, ptr %19, align 8
  %21 = tail call ptr @CopyTriggerDesc(ptr noundef %20) #9
  %22 = getelementptr inbounds nuw i8, ptr %0, i64 96
  store ptr %21, ptr %22, align 8
  %.not = icmp eq ptr %21, null
  br i1 %.not, label %36, label %23

23:                                               ; preds = %.loopexit
  %24 = getelementptr inbounds nuw i8, ptr %21, i64 8
  %25 = load i32, ptr %24, align 8
  %26 = sext i32 %25 to i64
  %27 = mul nsw i64 %26, 48
  %28 = tail call ptr @palloc0(i64 noundef %27) #9
  %29 = getelementptr inbounds nuw i8, ptr %0, i64 104
  store ptr %28, ptr %29, align 8
  %30 = shl nsw i64 %26, 3
  %31 = tail call ptr @palloc0(i64 noundef %30) #9
  %32 = getelementptr inbounds nuw i8, ptr %0, i64 112
  store ptr %31, ptr %32, align 8
  %.not77 = icmp eq i32 %4, 0
  br i1 %.not77, label %38, label %33

33:                                               ; preds = %23
  %34 = tail call ptr @InstrAlloc(i32 noundef %25, i32 noundef %4, i1 noundef zeroext false) #9
  %35 = getelementptr inbounds nuw i8, ptr %0, i64 120
  store ptr %34, ptr %35, align 8
  br label %38

36:                                               ; preds = %.loopexit
  %37 = getelementptr inbounds nuw i8, ptr %0, i64 104
  tail call void @llvm.memset.p0.i64(ptr noundef nonnull align 8 dereferenceable(24) %37, i8 0, i64 24, i1 false)
  br label %38

38:                                               ; preds = %23, %33, %36
  %39 = getelementptr inbounds nuw i8, ptr %1, i64 56
  %40 = load ptr, ptr %39, align 8
  %41 = getelementptr inbounds nuw i8, ptr %40, i64 115
  %42 = load i8, ptr %41, align 1
  %43 = icmp eq i8 %42, 102
  br i1 %43, label %44, label %46

44:                                               ; preds = %38
  %45 = tail call ptr @GetFdwRoutineForRelation(ptr noundef nonnull %1, i1 noundef zeroext true) #9
  br label %46

46:                                               ; preds = %38, %44
  %.sink = phi ptr [ %45, %44 ], [ null, %38 ]
  %47 = getelementptr inbounds nuw i8, ptr %0, i64 160
  store ptr %.sink, ptr %47, align 8
  %48 = getelementptr inbounds nuw i8, ptr %0, i64 40
  store i16 0, ptr %48, align 8
  %49 = getelementptr inbounds nuw i8, ptr %0, i64 48
  store ptr null, ptr %49, align 8
  %50 = getelementptr inbounds nuw i8, ptr %0, i64 64
  %51 = getelementptr inbounds nuw i8, ptr %0, i64 168
  store ptr null, ptr %51, align 8
  %52 = getelementptr inbounds nuw i8, ptr %0, i64 176
  store i8 0, ptr %52, align 8
  %53 = getelementptr inbounds nuw i8, ptr %0, i64 224
  %54 = getelementptr inbounds nuw i8, ptr %0, i64 264
  %55 = getelementptr inbounds nuw i8, ptr %0, i64 128
  %56 = getelementptr inbounds nuw i8, ptr %0, i64 360
  tail call void @llvm.memset.p0.i64(ptr noundef nonnull align 8 dereferenceable(25) %50, i8 0, i64 25, i1 false)
  tail call void @llvm.memset.p0.i64(ptr noundef nonnull align 8 dereferenceable(32) %55, i8 0, i64 32, i1 false)
  tail call void @llvm.memset.p0.i64(ptr noundef nonnull align 8 dereferenceable(24) %53, i8 0, i64 24, i1 false)
  tail call void @llvm.memset.p0.i64(ptr noundef nonnull align 8 dereferenceable(56) %54, i8 0, i64 56, i1 false)
  store ptr %3, ptr %56, align 8
  %57 = getelementptr inbounds nuw i8, ptr %0, i64 344
  store ptr null, ptr %57, align 8
  %58 = getelementptr inbounds nuw i8, ptr %0, i64 352
  store i8 0, ptr %58, align 8
  %59 = getelementptr inbounds nuw i8, ptr %0, i64 368
  %60 = getelementptr inbounds nuw i8, ptr %0, i64 328
  store ptr null, ptr %60, align 8
  %61 = getelementptr inbounds nuw i8, ptr %0, i64 336
  store i8 0, ptr %61, align 8
  tail call void @llvm.memset.p0.i64(ptr noundef nonnull align 8 dereferenceable(16) %59, i8 0, i64 16, i1 false)
  ret void
}